target datalayout = "e-m:e-p270:32:32-p271:32:32-p272:64:64-i64:64-i128:128-f80:128-n8:16:32:64-S128"
target triple = "x86_64-pc-linux-gnu"

%"struct.url::URLComponentSource" = type { ptr, ptr, ptr, ptr, ptr, ptr, ptr, ptr }

; Function Attrs: mustprogress nounwind uwtable
define linkonce_odr void @_ZN3url18URLComponentSourceIcEC2EPKc(ptr noundef nonnull align 8 dereferenceable(64) %0, ptr noundef %1) unnamed_addr #2 comdat align 2 {
  %3 = alloca ptr, align 8
  %4 = alloca ptr, align 8
  store ptr %0, ptr %3, align 8, !tbaa !14
  store ptr %1, ptr %4, align 8, !tbaa !3
  %5 = load ptr, ptr %3, align 8
  %6 = getelementptr inbounds nuw %"struct.url::URLComponentSource", ptr %5, i32 0, i32 0
  %7 = load ptr, ptr %4, align 8, !tbaa !3
  store ptr %7, ptr %6, align 8, !tbaa !33
  %8 = getelementptr inbounds nuw %"struct.url::URLComponentSource", ptr %5, i32 0, i32 1
  %9 = load ptr, ptr %4, align 8, !tbaa !3
  store ptr %9, ptr %8, align 8, !tbaa !34
  %10 = getelementptr inbounds nuw %"struct.url::URLComponentSource", ptr %5, i32 0, i32 2
  %11 = load ptr, ptr %4, align 8, !tbaa !3
  store ptr %11, ptr %10, align 8, !tbaa !35
  %12 = getelementptr inbounds nuw %"struct.url::URLComponentSource", ptr %5, i32 0, i32 3
  %13 = load ptr, ptr %4, align 8, !tbaa !3
  store ptr %13, ptr %12, align 8, !tbaa !36
  %14 = getelementptr inbounds nuw %"struct.url::URLComponentSource", ptr %5, i32 0, i32 4
  %15 = load ptr, ptr %4, align 8, !tbaa !3
  store ptr %15, ptr %14, align 8, !tbaa !37
  %16 = getelementptr inbounds nuw %"struct.url::URLComponentSource", ptr %5, i32 0, i32 5
  %17 = load ptr, ptr %4, align 8, !tbaa !3
  store ptr %17, ptr %16, align 8, !tbaa !24
  %18 = getelementptr inbounds nuw %"struct.url::URLComponentSource", ptr %5, i32 0, i32 6
  %19 = load ptr, ptr %4, align 8, !tbaa !3
  store ptr %19, ptr %18, align 8, !tbaa !32
  %20 = getelementptr inbounds nuw %"struct.url::URLComponentSource", ptr %5, i32 0, i32 7
  %21 = load ptr, ptr %4, align 8, !tbaa !3
  store ptr %21, ptr %20, align 8, !tbaa !38
  ret void
}

; Function Attrs: mustprogress uwtable
define noundef zeroext i1 @_ZN3url21CanonicalizeMailtoURLEPKciRKNS_6ParsedEPNS_12CanonOutputTIcEEPS2_(ptr noundef %0, i32 noundef %1, ptr noundef nonnull align 8 dereferenceable(72) %2, ptr noundef %3, ptr noundef %4) #0 {
  %6 = alloca ptr, align 8
  %7 = alloca i32, align 4
  %8 = alloca ptr, align 8
  %9 = alloca ptr, align 8
  %10 = alloca ptr, align 8
  %11 = alloca %"struct.url::URLComponentSource", align 8
  store ptr %0, ptr %6, align 8, !tbaa !3
  store i32 %1, ptr %7, align 4, !tbaa !8
  store ptr %2, ptr %8, align 8, !tbaa !10
  store ptr %3, ptr %9, align 8, !tbaa !12
  store ptr %4, ptr %10, align 8, !tbaa !10
  call void @llvm.lifetime.start.p0(i64 64, ptr %11) #11
  %12 = load ptr, ptr %6, align 8, !tbaa !3
  call void @_ZN3url18URLComponentSourceIcEC2EPKc(ptr noundef nonnull align 8 dereferenceable(64) %11, ptr noundef %12)
  %13 = load ptr, ptr %8, align 8, !tbaa !10
  %14 = load ptr, ptr %9, align 8, !tbaa !12
  %15 = load ptr, ptr %10, align 8, !tbaa !10
  %16 = call noundef zeroext i1 @_ZN3url12_GLOBAL__N_123DoCanonicalizeMailtoURLIchEEbRKNS_18URLComponentSourceIT_EERKNS_6ParsedEPNS_12CanonOutputTIcEEPS7_(ptr noundef nonnull align 8 dereferenceable(64) %11, ptr noundef nonnull align 8 dereferenceable(72) %13, ptr noundef %14, ptr noundef %15)
  call void @llvm.lifetime.end.p0(i64 64, ptr %11) #11
  ret i1 %16
}