; Function Attrs: mustprogress uwtable
define noundef zeroext i1 @_ZN3url21CanonicalizeMailtoURLEPKciRKNS_6ParsedEPNS_12CanonOutputTIcEEPS2_(ptr noundef %0, i32 noundef %1, ptr noundef nonnull align 8 dereferenceable(72) %2, ptr noundef %3, ptr noundef initializes((0, 4), (8, 40), (56, 64)) %4) local_unnamed_addr #0 {
  %6 = alloca %"struct.url::URLComponentSource", align 8
  call void @llvm.lifetime.start.p0(i64 64, ptr nonnull %6) #11
  store ptr %0, ptr %6, align 8, !tbaa !3
  %7 = getelementptr inbounds nuw i8, ptr %6, i64 8
  store ptr %0, ptr %7, align 8, !tbaa !9
  %8 = getelementptr inbounds nuw i8, ptr %6, i64 16
  store ptr %0, ptr %8, align 8, !tbaa !10
  %9 = getelementptr inbounds nuw i8, ptr %6, i64 24
  store ptr %0, ptr %9, align 8, !tbaa !11
  %10 = getelementptr inbounds nuw i8, ptr %6, i64 32
  store ptr %0, ptr %10, align 8, !tbaa !12
  %11 = getelementptr inbounds nuw i8, ptr %6, i64 40
  store ptr %0, ptr %11, align 8, !tbaa !13
  %12 = getelementptr inbounds nuw i8, ptr %6, i64 48
  store ptr %0, ptr %12, align 8, !tbaa !14
  %13 = getelementptr inbounds nuw i8, ptr %6, i64 56
  store ptr %0, ptr %13, align 8, !tbaa !15
  %14 = call fastcc noundef zeroext i1 @_ZN3url12_GLOBAL__N_123DoCanonicalizeMailtoURLIchEEbRKNS_18URLComponentSourceIT_EERKNS_6ParsedEPNS_12CanonOutputTIcEEPS7_(ptr noundef nonnull align 8 dereferenceable(64) %6, ptr noundef nonnull align 8 dereferenceable(72) %2, ptr noundef %3, ptr noundef %4)
  call void @llvm.lifetime.end.p0(i64 64, ptr nonnull %6) #11
  ret i1 %14
}